target datalayout = "e-m:e-p270:32:32-p271:32:32-p272:64:64-i64:64-i128:128-f80:128-n8:16:32:64-S128"
target triple = "x86_64-pc-linux-gnu"

%struct.strbuf = type { i64, i64, ptr }

@__const.wt_status_locate_end.pattern = private unnamed_addr constant %struct.strbuf { i64 0, i64 0, ptr @strbuf_slopbuf }, align 8
@.str.8 = private unnamed_addr constant [7 x i8] c"\0A%s %s\00", align 1
@comment_line_str = external global ptr, align 8
@cut_line = internal constant [54 x i8] c"------------------------ >8 ------------------------\0A\00", align 16

; Function Attrs: nounwind uwtable
define dso_local i64 @wt_status_locate_end(ptr noundef %0, i64 noundef %1) #0 {
  %3 = alloca ptr, align 8
  %4 = alloca i64, align 8
  %5 = alloca ptr, align 8
  %6 = alloca %struct.strbuf, align 8
  %7 = alloca i64, align 8
  store ptr %0, ptr %3, align 8, !tbaa !9
  store i64 %1, ptr %4, align 8, !tbaa !153
  call void @llvm.lifetime.start.p0(i64 8, ptr %5) #12
  call void @llvm.lifetime.start.p0(i64 24, ptr %6) #12
  call void @llvm.memcpy.p0.p0.i64(ptr align 8 %6, ptr align 8 @__const.wt_status_locate_end.pattern, i64 24, i1 false)
  %8 = load ptr, ptr @comment_line_str, align 8, !tbaa !9
  call void (ptr, ptr, ...) @strbuf_addf(ptr noundef %6, ptr noundef @.str.8, ptr noundef %8, ptr noundef @cut_line)
  %9 = load ptr, ptr %3, align 8, !tbaa !9
  %10 = getelementptr inbounds nuw %struct.strbuf, ptr %6, i32 0, i32 2
  %11 = load ptr, ptr %10, align 8, !tbaa !29
  %12 = getelementptr inbounds i8, ptr %11, i64 1
  %13 = call i32 @starts_with(ptr noundef %9, ptr noundef %12)
  %14 = icmp ne i32 %13, 0
  br i1 %14, label %15, label %16

15:                                               ; preds = %2
  store i64 0, ptr %4, align 8, !tbaa !153
  br label %36

16:                                               ; preds = %2
  %17 = load ptr, ptr %3, align 8, !tbaa !9
  %18 = getelementptr inbounds nuw %struct.strbuf, ptr %6, i32 0, i32 2
  %19 = load ptr, ptr %18, align 8, !tbaa !29
  %20 = call ptr @strstr(ptr noundef %17, ptr noundef %19) #13
  store ptr %20, ptr %5, align 8, !tbaa !9
  %21 = icmp ne ptr %20, null
  br i1 %21, label %22, label %35

22:                                               ; preds = %16
  call void @llvm.lifetime.start.p0(i64 8, ptr %7) #12
  %23 = load ptr, ptr %5, align 8, !tbaa !9
  %24 = load ptr, ptr %3, align 8, !tbaa !9
  %25 = ptrtoint ptr %23 to i64
  %26 = ptrtoint ptr %24 to i64
  %27 = sub i64 %25, %26
  %28 = add nsw i64 %27, 1
  store i64 %28, ptr %7, align 8, !tbaa !153
  %29 = load i64, ptr %7, align 8, !tbaa !153
  %30 = load i64, ptr %4, align 8, !tbaa !153
  %31 = icmp ult i64 %29, %30
  br i1 %31, label %32, label %34

32:                                               ; preds = %22
  %33 = load i64, ptr %7, align 8, !tbaa !153
  store i64 %33, ptr %4, align 8, !tbaa !153
  br label %34

34:                                               ; preds = %32, %22
  call void @llvm.lifetime.end.p0(i64 8, ptr %7) #12
  br label %35

35:                                               ; preds = %34, %16
  br label %36

36:                                               ; preds = %35, %15
  call void @strbuf_release(ptr noundef %6)
  %37 = load i64, ptr %4, align 8, !tbaa !153
  call void @llvm.lifetime.end.p0(i64 24, ptr %6) #12
  call void @llvm.lifetime.end.p0(i64 8, ptr %5) #12
  ret i64 %37
}