; Function Attrs: nounwind uwtable
define dso_local i64 @wt_status_locate_end(ptr noundef %0, i64 noundef %1) local_unnamed_addr #0 {
  %3 = alloca %struct.strbuf, align 8
  call void @llvm.lifetime.start.p0(i64 24, ptr nonnull %3) #20
  call void @llvm.memcpy.p0.p0.i64(ptr noundef nonnull align 8 dereferenceable(24) %3, ptr noundef nonnull align 8 dereferenceable(24) @__const.wt_longstatus_print_other.buf, i64 24, i1 false)
  %4 = load ptr, ptr @comment_line_str, align 8, !tbaa !22
  call void (ptr, ptr, ...) @strbuf_addf(ptr noundef nonnull %3, ptr noundef nonnull @.str.8, ptr noundef %4, ptr noundef nonnull @cut_line) #20
  %5 = getelementptr inbounds nuw i8, ptr %3, i64 16
  %6 = load ptr, ptr %5, align 8, !tbaa !25
  %7 = getelementptr inbounds nuw i8, ptr %6, i64 1
  %8 = call i32 @starts_with(ptr noundef %0, ptr noundef nonnull %7) #20
  %.not = icmp eq i32 %8, 0
  br i1 %.not, label %9, label %16

9:                                                ; preds = %2
  %10 = load ptr, ptr %5, align 8, !tbaa !25
  %11 = call ptr @strstr(ptr noundef nonnull dereferenceable(1) %0, ptr noundef nonnull dereferenceable(1) %10) #21
  %.not10 = icmp eq ptr %11, null
  br i1 %.not10, label %16, label %12

12:                                               ; preds = %9
  %13 = ptrtoint ptr %11 to i64
  %14 = ptrtoint ptr %0 to i64
  %reass.sub = sub i64 %13, %14
  %15 = add i64 %reass.sub, 1
  %spec.select = call i64 @llvm.umin.i64(i64 %15, i64 %1)
  br label %16

16:                                               ; preds = %2, %9, %12
  %.0 = phi i64 [ %spec.select, %12 ], [ %1, %9 ], [ 0, %2 ]
  call void @strbuf_release(ptr noundef nonnull %3) #20
  call void @llvm.lifetime.end.p0(i64 24, ptr nonnull %3) #20
  ret i64 %.0
}